Certificate:
    Data:
        Version: 3 (0x2)
        Serial Number: 12395720478407870660 (0xac0672198a8948c4)
    Signature Algorithm: sha1WithRSAEncryption
        Issuer: C=CN, ST=BJ, O=STO, OU=RD, CN=CA
        Validity
            Not Before: Jul  5 10:26:43 2013 GMT
            Not After : Jul  4 10:26:43 2016 GMT
        Subject: C=CN, ST=BJ, O=STO, OU=RD, CN=CA
        Subject Public Key Info:
            Public Key Algorithm: rsaEncryption
                Public-Key: (2048 bit)
                Modulus:
                    00:a8:d0:fb:77:80:45:86:c5:24:0c:c4:ee:fe:59:
                    f2:e5:84:52:44:93:35:02:c6:94:d8:34:37:75:35:
                    ec:a6:b9:03:e2:f2:ce:8b:25:2a:70:de:90:78:e6:
                    3d:2b:0d:ac:1a:5f:5e:6d:ba:d7:ea:ca:50:32:a3:
                    69:82:c1:82:70:a9:61:d0:d9:33:1f:ec:ff:14:d7:
                    eb:c7:aa:8e:14:e0:b7:f3:14:ff:c4:06:6e:6e:48:
                    0b:cf:f4:d7:b5:c0:5a:2f:17:0e:37:90:a9:af:d0:
                    f7:d1:fe:5b:25:d2:86:f6:ac:ab:d1:99:09:52:1a:
                    91:76:96:09:f5:76:8f:d1:bf:57:3d:d6:c0:9e:d6:
                    be:05:9a:7e:df:83:25:f1:93:88:ff:10:f1:8d:32:
                    83:5d:ca:2a:e5:ea:4d:1f:91:a9:17:a0:cc:46:21:
                    6f:cb:33:4b:bd:67:66:18:eb:ea:29:32:03:86:1b:
                    dd:e7:1b:f6:02:33:d9:53:eb:e0:b1:0c:1d:28:41:
                    34:41:cf:2b:52:50:93:59:0b:31:5c:e5:d5:45:82:
                    bc:40:e8:82:04:bd:b5:49:2c:75:cc:54:eb:80:15:
                    df:80:a0:57:81:b3:e9:2b:a3:43:50:4d:59:db:e7:
                    08:f0:25:58:eb:83:16:dc:b0:34:85:d5:b2:50:25:
                    68:83
                Exponent: 65537 (0x10001)
        X509v3 extensions:
            X509v3 Subject Key Identifier: 
                D5:0C:7E:5A:D0:81:3B:F8:4D:96:18:FF:0C:CC:1D:26:0F:9F:1E:03
            X509v3 Authority Key Identifier: 
                keyid:D5:0C:7E:5A:D0:81:3B:F8:4D:96:18:FF:0C:CC:1D:26:0F:9F:1E:03

            X509v3 Basic Constraints: 
                CA:TRUE
    Signature Algorithm: sha1WithRSAEncryption
         20:e3:a8:1c:87:86:1b:f6:5e:0a:34:aa:6f:37:73:0d:1a:05:
         af:d0:04:aa:8a:df:ad:8d:29:03:ff:85:36:3d:18:f7:ef:e0:
         ff:7c:f8:5d:f7:65:c1:60:df:4e:0a:a2:de:a5:a9:14:e1:62:
         d4:34:0f:45:d4:0b:8d:5e:80:45:63:6b:31:63:82:4b:6e:30:
         2e:63:68:18:47:1c:bf:ad:c3:51:86:7f:dd:dc:10:ad:48:df:
         16:cd:6b:2a:0f:c0:d3:d8:02:0f:cc:d6:8e:7f:fc:f8:79:34:
         a7:6d:76:ac:e7:d5:6a:b3:70:7f:08:0b:56:66:83:78:21:fa:
         54:dc:80:d1:f6:7d:7f:26:3d:d0:56:c4:32:7c:b7:c2:f8:9b:
         7f:9f:54:85:25:d9:13:93:65:13:b0:26:2a:d6:1f:ef:3f:0e:
         b2:05:65:9c:c0:24:ce:ab:6e:f3:7d:43:c3:83:2c:0c:64:2a:
         b9:2a:26:6d:d4:29:bc:55:df:8a:9d:1f:fd:3e:54:82:52:33:
         21:2c:b1:1d:dc:50:d6:82:3b:b3:8c:db:f1:e7:01:32:17:4a:
         9e:b8:f2:13:0f:90:c7:db:8f:ea:3c:ae:42:63:4b:b9:14:57:
         59:11:c4:85:b3:c8:6b:7e:c8:a3:a8:c8:16:f3:57:b1:93:f8:
         aa:be:74:56
-----BEGIN CERTIFICATE-----
MIIDVzCCAj+gAwIBAgIJAKwGchmKiUjEMA0GCSqGSIb3DQEBBQUAMEIxCzAJBgNV
BAYTAkNOMQswCQYDVQQIDAJCSjEMMAoGA1UECgwDU1RPMQswCQYDVQQLDAJSRDEL
MAkGA1UEAwwCQ0EwHhcNMTMwNzA1MTAyNjQzWhcNMTYwNzA0MTAyNjQzWjBCMQsw
CQYDVQQGEwJDTjELMAkGA1UECAwCQkoxDDAKBgNVBAoMA1NUTzELMAkGA1UECwwC
UkQxCzAJBgNVBAMMAkNBMIIBIjANBgkqhkiG9w0BAQEFAAOCAQ8AMIIBCgKCAQEA
qND7d4BFhsUkDMTu/lny5YRSRJM1AsaU2DQ3dTXsprkD4vLOiyUqcN6QeOY9Kw2s
Gl9ebbrX6spQMqNpgsGCcKlh0NkzH+z/FNfrx6qOFOC38xT/xAZubkgLz/TXtcBa
LxcON5Cpr9D30f5bJdKG9qyr0ZkJUhqRdpYJ9XaP0b9XPdbAnta+BZp+34Ml8ZOI
/xDxjTKDXcoq5epNH5GpF6DMRiFvyzNLvWdmGOvqKTIDhhvd5xv2AjPZU+vgsQwd
KEE0Qc8rUlCTWQsxXOXVRYK8QOiCBL21SSx1zFTrgBXfgKBXgbPpK6NDUE1Z2+cI
8CVY64MW3LA0hdWyUCVogwIDAQABo1AwTjAdBgNVHQ4EFgQU1Qx+WtCBO/hNlhj/
DMwdJg+fHgMwHwYDVR0jBBgwFoAU1Qx+WtCBO/hNlhj/DMwdJg+fHgMwDAYDVR0T
BAUwAwEB/zANBgkqhkiG9w0BAQUFAAOCAQEAIOOoHIeGG/ZeCjSqbzdzDRoFr9AE
qorfrY0pA/+FNj0Y9+/g/3z4XfdlwWDfTgqi3qWpFOFi1DQPRdQLjV6ARWNrMWOC
S24wLmNoGEccv63DUYZ/3dwQrUjfFs1rKg/A09gCD8zWjn/8+Hk0p212rOfVarNw
fwgLVmaDeCH6VNyA0fZ9fyY90FbEMny3wvibf59UhSXZE5NlE7AmKtYf7z8OsgVl
nMAkzqtu831Dw4MsDGQquSombdQpvFXfip0f/T5UglIzISyxHdxQ1oI7s4zb8ecB
MhdKnrjyEw+Qx9uP6jyuQmNLuRRXWRHEhbPIa37Io6jIFvNXsZP4qr50Vg==
-----END CERTIFICATE-----
