Certificate:
    Data:
        Version: 3 (0x2)
        Serial Number: 12395720478407870662 (0xac0672198a8948c6)
    Signature Algorithm: sha1WithRSAEncryption
        Issuer: C=CN, ST=BJ, O=STO, OU=RD, CN=CA
        Validity
            Not Before: Jul  5 10:45:57 2013 GMT
            Not After : Jul  5 10:45:57 2014 GMT
        Subject: C=CN, ST=BJ, L=FT, O=STO, OU=RD, CN=CONE
        Subject Public Key Info:
            Public Key Algorithm: rsaEncryption
                Public-Key: (2048 bit)
                Modulus:
                    00:c2:99:3b:7c:11:3a:de:a8:34:90:03:d7:42:02:
                    f7:7d:22:16:ed:17:ba:29:c5:1b:3e:54:11:e6:73:
                    85:69:e2:ed:56:52:55:34:75:92:1a:4c:48:a7:ff:
                    2b:d1:e2:39:50:e6:3f:8c:9e:e0:85:c3:27:9f:2c:
                    87:be:bc:c7:d6:47:11:86:29:6d:9c:40:7f:a7:63:
                    a8:81:92:a5:f1:ec:4d:86:4e:80:b0:87:ee:56:2a:
                    25:65:30:75:33:b2:df:40:7c:13:4d:69:2f:82:0b:
                    cf:93:5a:ff:b9:7b:ee:da:7b:a4:8e:7b:42:d8:83:
                    31:02:93:be:c8:cc:c1:63:2b:9d:56:ed:13:5f:6c:
                    5c:fe:05:19:c4:2f:6c:7e:c4:87:0b:0d:2a:61:ae:
                    ef:0d:d6:5a:22:50:04:b3:22:7f:85:37:67:8a:3a:
                    fd:38:c4:cd:42:02:48:03:73:76:c2:e9:93:53:cb:
                    5a:db:04:1c:39:e8:00:eb:b6:cf:1a:fa:fa:1e:96:
                    06:03:77:f8:f4:04:3a:43:ea:15:0c:6d:a6:7f:76:
                    1e:e4:4f:14:ba:c4:cc:d7:66:df:67:fc:e5:73:48:
                    ef:9a:1d:dd:bd:98:08:9c:88:85:af:93:3f:93:7e:
                    79:7e:85:1a:9a:a2:57:69:88:18:d2:aa:cc:26:95:
                    0c:33
                Exponent: 65537 (0x10001)
        X509v3 extensions:
            X509v3 Basic Constraints: 
                CA:FALSE
            Netscape Comment: 
                OpenSSL Generated Certificate
            X509v3 Subject Key Identifier: 
                AC:01:76:9A:70:F4:9D:28:80:A4:13:AE:9D:3E:28:76:39:E2:53:F8
            X509v3 Authority Key Identifier: 
                keyid:D5:0C:7E:5A:D0:81:3B:F8:4D:96:18:FF:0C:CC:1D:26:0F:9F:1E:03

    Signature Algorithm: sha1WithRSAEncryption
         02:c9:ca:dd:24:e9:5f:97:9f:94:86:89:d2:ce:35:df:53:82:
         24:f9:a8:bd:0c:3b:80:e5:9e:9b:21:a1:cd:93:7f:10:14:ce:
         d5:8b:ae:9c:a7:34:ad:15:a9:7a:f7:a1:4f:24:84:08:f6:1c:
         9a:6c:52:30:38:5d:e8:d3:c1:e7:da:39:ab:04:a1:06:f7:39:
         39:5e:ee:12:cd:7b:26:a1:c7:da:c2:88:71:05:10:91:2d:bc:
         8d:dd:7f:c2:92:c6:0a:19:d6:56:1a:2e:5f:7e:3f:32:0d:bb:
         da:89:d4:cc:f7:2b:8e:ec:73:0d:8e:f8:7b:6e:33:ca:fb:ce:
         7b:6f:53:27:2e:0a:d1:9b:de:6c:89:87:86:d8:ee:78:37:06:
         1f:0d:f8:93:ca:d3:20:27:a5:f7:fc:ab:8b:99:c0:bf:74:8b:
         b4:11:34:66:77:f3:85:65:0f:96:e0:a8:cf:d9:e9:e5:ff:ee:
         10:f6:77:e6:d7:07:6f:6a:4f:8c:98:75:25:d6:d8:67:8d:b1:
         9d:b0:1b:08:ea:8c:c5:c6:7b:7d:fd:15:69:f6:93:a4:e4:77:
         7e:84:38:de:3e:c5:47:38:51:a3:68:af:41:38:b6:21:a7:30:
         48:0b:c8:20:e0:86:35:48:92:cc:ce:c7:a9:54:da:64:4b:8e:
         af:b7:e1:5e
-----BEGIN CERTIFICATE-----
MIIDkTCCAnmgAwIBAgIJAKwGchmKiUjGMA0GCSqGSIb3DQEBBQUAMEIxCzAJBgNV
BAYTAkNOMQswCQYDVQQIDAJCSjEMMAoGA1UECgwDU1RPMQswCQYDVQQLDAJSRDEL
MAkGA1UEAwwCQ0EwHhcNMTMwNzA1MTA0NTU3WhcNMTQwNzA1MTA0NTU3WjBRMQsw
CQYDVQQGEwJDTjELMAkGA1UECAwCQkoxCzAJBgNVBAcMAkZUMQwwCgYDVQQKDANT
VE8xCzAJBgNVBAsMAlJEMQ0wCwYDVQQDDARDT05FMIIBIjANBgkqhkiG9w0BAQEF
AAOCAQ8AMIIBCgKCAQEAwpk7fBE63qg0kAPXQgL3fSIW7Re6KcUbPlQR5nOFaeLt
VlJVNHWSGkxIp/8r0eI5UOY/jJ7ghcMnnyyHvrzH1kcRhiltnEB/p2OogZKl8exN
hk6AsIfuViolZTB1M7LfQHwTTWkvggvPk1r/uXvu2nukjntC2IMxApO+yMzBYyud
Vu0TX2xc/gUZxC9sfsSHCw0qYa7vDdZaIlAEsyJ/hTdnijr9OMTNQgJIA3N2wumT
U8ta2wQcOegA67bPGvr6HpYGA3f49AQ6Q+oVDG2mf3Ye5E8UusTM12bfZ/zlc0jv
mh3dvZgInIiFr5M/k355foUamqJXaYgY0qrMJpUMMwIDAQABo3sweTAJBgNVHRME
AjAAMCwGCWCGSAGG+EIBDQQfFh1PcGVuU1NMIEdlbmVyYXRlZCBDZXJ0aWZpY2F0
ZTAdBgNVHQ4EFgQUrAF2mnD0nSiApBOunT4odjniU/gwHwYDVR0jBBgwFoAU1Qx+
WtCBO/hNlhj/DMwdJg+fHgMwDQYJKoZIhvcNAQEFBQADggEBAALJyt0k6V+Xn5SG
idLONd9TgiT5qL0MO4Dlnpshoc2TfxAUztWLrpynNK0VqXr3oU8khAj2HJpsUjA4
XejTwefaOasEoQb3OTle7hLNeyahx9rCiHEFEJEtvI3df8KSxgoZ1lYaLl9+PzIN
u9qJ1Mz3K47scw2O+HtuM8r7zntvUycuCtGb3myJh4bY7ng3Bh8N+JPK0yAnpff8
q4uZwL90i7QRNGZ384VlD5bgqM/Z6eX/7hD2d+bXB29qT4yYdSXW2GeNsZ2wGwjq
jMXGe339FWn2k6Tkd36EON4+xUc4UaNor0E4tiGnMEgLyCDghjVIkszOx6lU2mRL
jq+34V4=
-----END CERTIFICATE-----
