Certificate:
    Data:
        Version: 3 (0x2)
        Serial Number: 12395720478407870661 (0xac0672198a8948c5)
    Signature Algorithm: sha1WithRSAEncryption
        Issuer: C=CN, ST=BJ, O=STO, OU=RD, CN=CA
        Validity
            Not Before: Jul  5 10:44:20 2013 GMT
            Not After : Jul  5 10:44:20 2014 GMT
        Subject: C=CN, ST=BJ, L=FT, O=STO, OU=RD, CN=SONE
        Subject Public Key Info:
            Public Key Algorithm: rsaEncryption
                Public-Key: (2048 bit)
                Modulus:
                    00:d4:bd:14:f7:86:76:b4:ee:7c:f1:23:88:4a:30:
                    02:ac:d7:34:12:65:86:6e:d1:1c:9f:15:ba:b2:cd:
                    79:9c:71:8c:4e:ee:d6:d2:9f:1c:a3:de:ae:89:96:
                    72:a9:4b:12:1f:d6:5c:7a:cb:3c:0f:d6:48:3d:df:
                    24:69:54:5e:64:cc:1f:2c:07:b9:56:7c:80:8b:ce:
                    18:58:a4:ef:a0:34:73:c3:19:18:70:0a:4b:6c:48:
                    7d:23:3c:6c:c4:84:0f:5f:a5:c0:00:75:55:43:4d:
                    42:d2:34:fe:87:5b:b6:e2:6e:1f:24:7f:ad:ea:f3:
                    18:41:56:1c:3f:ac:64:38:8d:91:56:6d:b0:a4:39:
                    84:4b:b9:4c:57:67:74:93:e9:0c:33:73:b4:ea:8e:
                    74:ae:89:8a:a4:64:93:8d:6f:a4:4e:4c:d2:8a:48:
                    d6:1f:9b:f6:39:06:e3:67:9e:f3:1b:13:c8:d2:f7:
                    bc:b7:a9:3d:c5:95:5b:2f:32:be:4f:cb:64:1e:25:
                    46:87:6f:9b:90:d0:51:bf:9e:4e:93:c5:9e:4b:a0:
                    30:cc:2b:a6:1f:17:15:e2:e6:ea:89:59:b9:6f:11:
                    4e:2c:03:2f:43:6f:d9:15:c6:61:4d:dc:df:4d:5b:
                    94:91:c4:0e:2f:3f:68:6c:14:48:66:bb:07:95:4f:
                    7c:35
                Exponent: 65537 (0x10001)
        X509v3 extensions:
            X509v3 Basic Constraints: 
                CA:FALSE
            Netscape Comment: 
                OpenSSL Generated Certificate
            X509v3 Subject Key Identifier: 
                21:9A:0B:F2:91:B7:17:73:99:3F:ED:C4:FB:2B:FA:99:F3:DC:9C:3B
            X509v3 Authority Key Identifier: 
                keyid:D5:0C:7E:5A:D0:81:3B:F8:4D:96:18:FF:0C:CC:1D:26:0F:9F:1E:03

    Signature Algorithm: sha1WithRSAEncryption
         0f:df:23:33:27:ba:eb:34:c8:57:27:05:fa:03:a4:fd:fd:d9:
         0d:a4:0f:64:5d:29:24:36:a8:4a:f0:b9:9c:de:ed:25:30:35:
         67:06:ac:9d:99:67:b8:cc:ff:08:3c:cb:20:9c:50:b1:e5:86:
         b9:bd:0c:53:1c:8a:67:75:d9:a3:eb:38:63:3d:42:b1:22:10:
         aa:32:f0:9b:ce:fd:c1:e9:80:2c:0b:b8:a4:8a:6f:31:02:ce:
         f0:17:43:7f:41:bb:95:8c:44:46:05:5b:eb:c7:77:e1:b1:d8:
         1f:eb:d4:d2:36:aa:23:f0:d5:aa:84:4f:b8:bc:ca:a8:7f:a9:
         4f:a3:2e:b5:05:a8:06:04:e3:57:94:80:d4:da:77:d6:b6:b8:
         fe:fd:d9:5e:43:ff:7d:8b:f0:30:0a:45:de:23:2d:f6:fa:bd:
         d7:36:46:33:a2:92:3e:66:13:b8:aa:ad:ca:4f:87:ac:f4:2f:
         fe:b7:bb:32:cc:76:6e:49:21:e7:36:de:4d:31:72:8f:0c:99:
         d6:94:05:ca:45:66:f8:f9:10:91:b6:21:58:7a:e5:7a:c6:ea:
         ea:8d:66:db:ae:9d:f5:71:7f:49:72:c5:54:58:c2:51:17:28:
         95:99:4a:cc:14:c3:3c:63:10:85:ff:ad:3a:8b:83:7b:08:f9:
         00:67:3b:ef
-----BEGIN CERTIFICATE-----
MIIDkTCCAnmgAwIBAgIJAKwGchmKiUjFMA0GCSqGSIb3DQEBBQUAMEIxCzAJBgNV
BAYTAkNOMQswCQYDVQQIDAJCSjEMMAoGA1UECgwDU1RPMQswCQYDVQQLDAJSRDEL
MAkGA1UEAwwCQ0EwHhcNMTMwNzA1MTA0NDIwWhcNMTQwNzA1MTA0NDIwWjBRMQsw
CQYDVQQGEwJDTjELMAkGA1UECAwCQkoxCzAJBgNVBAcMAkZUMQwwCgYDVQQKDANT
VE8xCzAJBgNVBAsMAlJEMQ0wCwYDVQQDDARTT05FMIIBIjANBgkqhkiG9w0BAQEF
AAOCAQ8AMIIBCgKCAQEA1L0U94Z2tO588SOISjACrNc0EmWGbtEcnxW6ss15nHGM
Tu7W0p8co96uiZZyqUsSH9Zcess8D9ZIPd8kaVReZMwfLAe5VnyAi84YWKTvoDRz
wxkYcApLbEh9IzxsxIQPX6XAAHVVQ01C0jT+h1u24m4fJH+t6vMYQVYcP6xkOI2R
Vm2wpDmES7lMV2d0k+kMM3O06o50romKpGSTjW+kTkzSikjWH5v2OQbjZ57zGxPI
0ve8t6k9xZVbLzK+T8tkHiVGh2+bkNBRv55Ok8WeS6AwzCumHxcV4ubqiVm5bxFO
LAMvQ2/ZFcZhTdzfTVuUkcQOLz9obBRIZrsHlU98NQIDAQABo3sweTAJBgNVHRME
AjAAMCwGCWCGSAGG+EIBDQQfFh1PcGVuU1NMIEdlbmVyYXRlZCBDZXJ0aWZpY2F0
ZTAdBgNVHQ4EFgQUIZoL8pG3F3OZP+3E+yv6mfPcnDswHwYDVR0jBBgwFoAU1Qx+
WtCBO/hNlhj/DMwdJg+fHgMwDQYJKoZIhvcNAQEFBQADggEBAA/fIzMnuus0yFcn
BfoDpP392Q2kD2RdKSQ2qErwuZze7SUwNWcGrJ2ZZ7jM/wg8yyCcULHlhrm9DFMc
imd12aPrOGM9QrEiEKoy8JvO/cHpgCwLuKSKbzECzvAXQ39Bu5WMREYFW+vHd+Gx
2B/r1NI2qiPw1aqET7i8yqh/qU+jLrUFqAYE41eUgNTad9a2uP792V5D/32L8DAK
Rd4jLfb6vdc2RjOikj5mE7iqrcpPh6z0L/63uzLMdm5JIec23k0xco8MmdaUBcpF
Zvj5EJG2IVh65XrG6uqNZtuunfVxf0lyxVRYwlEXKJWZSswUwzxjEIX/rTqLg3sI
+QBnO+8=
-----END CERTIFICATE-----
